; Function Attrs: null_pointer_is_valid sspstrong uwtable
define noundef zeroext i1 @prefs_capture_options_dialog_column_is_visible(ptr noundef %0) local_unnamed_addr #1 {
  %2 = load ptr, ptr getelementptr inbounds nuw (i8, ptr @prefs, i64 368), align 8
  %3 = tail call ptr @g_list_first(ptr noundef %2)
  %.not11.not = icmp eq ptr %3, null
  br i1 %.not11.not, label %._crit_edge, label %.lr.ph

.lr.ph:                                           ; preds = %1, %8
  %.0812 = phi ptr [ %10, %8 ], [ %3, %1 ]
  %4 = load ptr, ptr %.0812, align 8
  %.not10 = icmp eq ptr %4, null
  br i1 %.not10, label %8, label %5

5:                                                ; preds = %.lr.ph
  %6 = tail call i32 @g_ascii_strcasecmp(ptr noundef nonnull %4, ptr noundef %0)
  %7 = icmp eq i32 %6, 0
  br i1 %7, label %._crit_edge, label %8

8:                                                ; preds = %.lr.ph, %5
  %9 = getelementptr inbounds nuw i8, ptr %.0812, i64 8
  %10 = load ptr, ptr %9, align 8
  %.not.not = icmp eq ptr %10, null
  br i1 %.not.not, label %._crit_edge, label %.lr.ph, !llvm.loop !42

._crit_edge:                                      ; preds = %5, %8, %1
  %.not.lcssa = phi i1 [ false, %1 ], [ false, %8 ], [ true, %5 ]
  ret i1 %.not.lcssa
}